; Function Attrs: nofree norecurse nosync nounwind memory(readwrite, inaccessiblemem: none) uwtable
define hidden void @Ushort565RgbToIntArgbConvert(ptr noundef %0, ptr noundef %1, i32 noundef %2, i32 noundef %3, ptr nocapture noundef readonly %4, ptr nocapture noundef readonly %5, ptr nocapture readnone %6, ptr nocapture readnone %7) #1 {
  %9 = getelementptr inbounds i8, ptr %4, i64 32
  %10 = load i32, ptr %9, align 8
  %11 = getelementptr inbounds i8, ptr %5, i64 32
  %12 = load i32, ptr %11, align 8
  %13 = shl i32 %2, 1
  %14 = sub i32 %10, %13
  %15 = shl i32 %2, 2
  %16 = sub i32 %12, %15
  %17 = sext i32 %14 to i64
  %18 = sext i32 %16 to i64
  br label %19

19:                                               ; preds = %45, %8
  %.031 = phi ptr [ %1, %8 ], [ %49, %45 ]
  %.030 = phi ptr [ %0, %8 ], [ %47, %45 ]
  %.0 = phi i32 [ %3, %8 ], [ %50, %45 ]
  br label %20

20:                                               ; preds = %20, %19
  %.033 = phi i32 [ %2, %19 ], [ %44, %20 ]
  %.132 = phi ptr [ %.031, %19 ], [ %43, %20 ]
  %.1 = phi ptr [ %.030, %19 ], [ %40, %20 ]
  %21 = load i16, ptr %.1, align 2
  %22 = zext i16 %21 to i32
  %23 = lshr i32 %22, 5
  %24 = and i32 %23, 63
  %25 = shl nuw nsw i32 %24, 2
  %26 = lshr i32 %24, 4
  %27 = or disjoint i32 %25, %26
  %28 = and i32 %22, 31
  %29 = shl nuw nsw i32 %28, 3
  %30 = lshr i32 %28, 2
  %31 = or disjoint i32 %29, %30
  %32 = and i32 %23, 1792
  %.mask = and i32 %22, 63488
  %33 = or disjoint i32 %.mask, %32
  %34 = or disjoint i32 %27, %33
  %35 = shl nuw nsw i32 %34, 8
  %36 = or disjoint i32 %35, %31
  %37 = or disjoint i32 %36, -16777216
  store i32 %37, ptr %.132, align 4
  %38 = ptrtoint ptr %.1 to i64
  %39 = add nsw i64 %38, 2
  %40 = inttoptr i64 %39 to ptr
  %41 = ptrtoint ptr %.132 to i64
  %42 = add nsw i64 %41, 4
  %43 = inttoptr i64 %42 to ptr
  %44 = add i32 %.033, -1
  %.not = icmp eq i32 %44, 0
  br i1 %.not, label %45, label %20, !llvm.loop !6

45:                                               ; preds = %20
  %46 = add nsw i64 %39, %17
  %47 = inttoptr i64 %46 to ptr
  %48 = add nsw i64 %42, %18
  %49 = inttoptr i64 %48 to ptr
  %50 = add i32 %.0, -1
  %.not35 = icmp eq i32 %50, 0
  br i1 %.not35, label %51, label %19, !llvm.loop !8

51:                                               ; preds = %45
  ret void
}